target datalayout = "e-m:e-p270:32:32-p271:32:32-p272:64:64-i64:64-i128:128-f80:128-n8:16:32:64-S128"
target triple = "x86_64-pc-linux-gnu"

%struct.H5O_msg_class_t = type { i32, ptr, i64, i32, ptr, ptr, ptr, ptr, ptr, ptr, ptr, ptr, ptr, ptr, ptr, ptr, ptr, ptr, ptr, ptr }
%struct.H5O_ainfo_t = type { i8, i8, i32, i64, i64, i64, i64 }
%struct.H5O_mesg_operator_t = type { i32, %union.anon.0 }
%union.anon.0 = type { ptr }
%struct.H5O_loc_t = type { ptr, i64, i8 }
%struct.H5O_t = type { %struct.H5C_cache_entry_t, i64, i64, i8, i64, i8, i32, i8, i8, i64, i64, i64, i64, i32, i32, i64, i64, ptr, i64, i64, i64, i64, ptr, i8, ptr }
%struct.H5C_cache_entry_t = type { ptr, i64, i64, ptr, i8, ptr, i8, i8, i8, i8, i32, i8, i8, i8, i8, i8, i32, ptr, i32, i32, i32, i32, i32, i8, i8, ptr, ptr, ptr, ptr, ptr, ptr, i8, i32, i8, i64, ptr, i64, i64, i32, i8, i32, i32, i8, ptr, ptr, ptr }
%struct.H5O_iter_wrt_t = type { ptr, ptr, i8 }

@.str = private unnamed_addr constant [106 x i8] c"generated/home/dtcxzyw/WorkSpace/Projects/compilers/llvm-opt-benchmark/bench/hdf5/hdf5/src/H5Oattribute.c\00", align 1
@H5E_ATTR_g = external global i64, align 8
@H5E_CANTPIN_g = external global i64, align 8
@.str.1 = private unnamed_addr constant [28 x i8] c"unable to pin object header\00", align 1
@H5E_CANTGET_g = external global i64, align 8
@.str.3 = private unnamed_addr constant [39 x i8] c"can't check for attribute info message\00", align 1
@H5O_MSG_ATTR = external constant [1 x %struct.H5O_msg_class_t], align 16
@H5E_CANTUPDATE_g = external global i64, align 8
@.str.15 = private unnamed_addr constant [32 x i8] c"unable to update time on object\00", align 1
@H5E_CANTUNPIN_g = external global i64, align 8
@.str.16 = private unnamed_addr constant [30 x i8] c"unable to unpin object header\00", align 1
@.str.21 = private unnamed_addr constant [25 x i8] c"error updating attribute\00", align 1
@H5E_NOTFOUND_g = external global i64, align 8
@__func__.H5O__attr_write = private unnamed_addr constant [16 x i8] c"H5O__attr_write\00", align 1
@.str.33 = private unnamed_addr constant [29 x i8] c"can't locate open attribute?\00", align 1

; Function Attrs: nounwind uwtable
define i32 @H5O__attr_write(ptr noundef %0, ptr noundef %1) #0 {
  %3 = alloca ptr, align 8
  %4 = alloca ptr, align 8
  %5 = alloca ptr, align 8
  %6 = alloca %struct.H5O_ainfo_t, align 8
  %7 = alloca i32, align 4
  %8 = alloca i8, align 1
  %9 = alloca %struct.H5O_iter_wrt_t, align 8
  %10 = alloca %struct.H5O_mesg_operator_t, align 8
  store ptr %0, ptr %3, align 8
  store ptr %1, ptr %4, align 8
  store ptr null, ptr %5, align 8
  store i32 0, ptr %7, align 4
  store i8 0, ptr %8, align 1
  %11 = load ptr, ptr %3, align 8
  %12 = call ptr @H5O_pin(ptr noundef %11)
  store ptr %12, ptr %5, align 8
  %13 = icmp eq ptr null, %12
  br i1 %13, label %14, label %29

14:                                               ; preds = %2
  br label %15

15:                                               ; preds = %14
  br label %16

16:                                               ; preds = %15
  br label %17

17:                                               ; preds = %16
  %18 = load i64, ptr @H5E_ATTR_g, align 8
  %19 = load i64, ptr @H5E_CANTPIN_g, align 8
  %20 = call i32 (ptr, ptr, i32, i64, i64, ptr, ...) @H5E_printf_stack(ptr noundef @.str, ptr noundef @__func__.H5O__attr_write, i32 noundef 872, i64 noundef %18, i64 noundef %19, ptr noundef @.str.1)
  br label %21

21:                                               ; preds = %17
  store i8 1, ptr %8, align 1
  %22 = load i8, ptr %8, align 1
  %23 = trunc i8 %22 to i1
  %24 = zext i1 %23 to i8
  store i8 %24, ptr %8, align 1
  br label %25

25:                                               ; preds = %21
  br label %26

26:                                               ; preds = %25
  store i32 -1, ptr %7, align 4
  br label %160

27:                                               ; No predecessors!
  br label %28

28:                                               ; preds = %27
  br label %29

29:                                               ; preds = %28, %2
  %30 = getelementptr inbounds %struct.H5O_ainfo_t, ptr %6, i32 0, i32 5
  store i64 -1, ptr %30, align 8
  %31 = load ptr, ptr %5, align 8
  %32 = getelementptr inbounds %struct.H5O_t, ptr %31, i32 0, i32 7
  %33 = load i8, ptr %32, align 8
  %34 = zext i8 %33 to i32
  %35 = icmp sgt i32 %34, 1
  br i1 %35, label %36, label %59

36:                                               ; preds = %29
  %37 = load ptr, ptr %3, align 8
  %38 = getelementptr inbounds %struct.H5O_loc_t, ptr %37, i32 0, i32 0
  %39 = load ptr, ptr %38, align 8
  %40 = load ptr, ptr %5, align 8
  %41 = call i32 @H5A__get_ainfo(ptr noundef %39, ptr noundef %40, ptr noundef %6)
  %42 = icmp slt i32 %41, 0
  br i1 %42, label %43, label %58

43:                                               ; preds = %36
  br label %44

44:                                               ; preds = %43
  br label %45

45:                                               ; preds = %44
  br label %46

46:                                               ; preds = %45
  %47 = load i64, ptr @H5E_ATTR_g, align 8
  %48 = load i64, ptr @H5E_CANTGET_g, align 8
  %49 = call i32 (ptr, ptr, i32, i64, i64, ptr, ...) @H5E_printf_stack(ptr noundef @.str, ptr noundef @__func__.H5O__attr_write, i32 noundef 879, i64 noundef %47, i64 noundef %48, ptr noundef @.str.3)
  br label %50

50:                                               ; preds = %46
  store i8 1, ptr %8, align 1
  %51 = load i8, ptr %8, align 1
  %52 = trunc i8 %51 to i1
  %53 = zext i1 %52 to i8
  store i8 %53, ptr %8, align 1
  br label %54

54:                                               ; preds = %50
  br label %55

55:                                               ; preds = %54
  store i32 -1, ptr %7, align 4
  br label %160

56:                                               ; No predecessors!
  br label %57

57:                                               ; preds = %56
  br label %58

58:                                               ; preds = %57, %36
  br label %59

59:                                               ; preds = %58, %29
  %60 = getelementptr inbounds %struct.H5O_ainfo_t, ptr %6, i32 0, i32 5
  %61 = load i64, ptr %60, align 8
  %62 = icmp ne i64 %61, -1
  br i1 %62, label %63, label %86

63:                                               ; preds = %59
  %64 = load ptr, ptr %3, align 8
  %65 = getelementptr inbounds %struct.H5O_loc_t, ptr %64, i32 0, i32 0
  %66 = load ptr, ptr %65, align 8
  %67 = load ptr, ptr %4, align 8
  %68 = call i32 @H5A__dense_write(ptr noundef %66, ptr noundef %6, ptr noundef %67)
  %69 = icmp slt i32 %68, 0
  br i1 %69, label %70, label %85

70:                                               ; preds = %63
  br label %71

71:                                               ; preds = %70
  br label %72

72:                                               ; preds = %71
  br label %73

73:                                               ; preds = %72
  %74 = load i64, ptr @H5E_ATTR_g, align 8
  %75 = load i64, ptr @H5E_CANTUPDATE_g, align 8
  %76 = call i32 (ptr, ptr, i32, i64, i64, ptr, ...) @H5E_printf_stack(ptr noundef @.str, ptr noundef @__func__.H5O__attr_write, i32 noundef 886, i64 noundef %74, i64 noundef %75, ptr noundef @.str.21)
  br label %77

77:                                               ; preds = %73
  store i8 1, ptr %8, align 1
  %78 = load i8, ptr %8, align 1
  %79 = trunc i8 %78 to i1
  %80 = zext i1 %79 to i8
  store i8 %80, ptr %8, align 1
  br label %81

81:                                               ; preds = %77
  br label %82

82:                                               ; preds = %81
  store i32 -1, ptr %7, align 4
  br label %160

83:                                               ; No predecessors!
  br label %84

84:                                               ; preds = %83
  br label %85

85:                                               ; preds = %84, %63
  br label %137

86:                                               ; preds = %59
  %87 = load ptr, ptr %3, align 8
  %88 = getelementptr inbounds %struct.H5O_loc_t, ptr %87, i32 0, i32 0
  %89 = load ptr, ptr %88, align 8
  %90 = getelementptr inbounds %struct.H5O_iter_wrt_t, ptr %9, i32 0, i32 0
  store ptr %89, ptr %90, align 8
  %91 = load ptr, ptr %4, align 8
  %92 = getelementptr inbounds %struct.H5O_iter_wrt_t, ptr %9, i32 0, i32 1
  store ptr %91, ptr %92, align 8
  %93 = getelementptr inbounds %struct.H5O_iter_wrt_t, ptr %9, i32 0, i32 2
  store i8 0, ptr %93, align 8
  %94 = getelementptr inbounds %struct.H5O_mesg_operator_t, ptr %10, i32 0, i32 0
  store i32 1, ptr %94, align 8
  %95 = getelementptr inbounds %struct.H5O_mesg_operator_t, ptr %10, i32 0, i32 1
  store ptr @H5O__attr_write_cb, ptr %95, align 8
  %96 = load ptr, ptr %3, align 8
  %97 = getelementptr inbounds %struct.H5O_loc_t, ptr %96, i32 0, i32 0
  %98 = load ptr, ptr %97, align 8
  %99 = load ptr, ptr %5, align 8
  %100 = call i32 @H5O__msg_iterate_real(ptr noundef %98, ptr noundef %99, ptr noundef @H5O_MSG_ATTR, ptr noundef %10, ptr noundef %9)
  %101 = icmp slt i32 %100, 0
  br i1 %101, label %102, label %117

102:                                              ; preds = %86
  br label %103

103:                                              ; preds = %102
  br label %104

104:                                              ; preds = %103
  br label %105

105:                                              ; preds = %104
  %106 = load i64, ptr @H5E_ATTR_g, align 8
  %107 = load i64, ptr @H5E_CANTUPDATE_g, align 8
  %108 = call i32 (ptr, ptr, i32, i64, i64, ptr, ...) @H5E_printf_stack(ptr noundef @.str, ptr noundef @__func__.H5O__attr_write, i32 noundef 901, i64 noundef %106, i64 noundef %107, ptr noundef @.str.21)
  br label %109

109:                                              ; preds = %105
  store i8 1, ptr %8, align 1
  %110 = load i8, ptr %8, align 1
  %111 = trunc i8 %110 to i1
  %112 = zext i1 %111 to i8
  store i8 %112, ptr %8, align 1
  br label %113

113:                                              ; preds = %109
  br label %114

114:                                              ; preds = %113
  store i32 -1, ptr %7, align 4
  br label %160

115:                                              ; No predecessors!
  br label %116

116:                                              ; preds = %115
  br label %117

117:                                              ; preds = %116, %86
  %118 = getelementptr inbounds %struct.H5O_iter_wrt_t, ptr %9, i32 0, i32 2
  %119 = load i8, ptr %118, align 8
  %120 = trunc i8 %119 to i1
  br i1 %120, label %136, label %121

121:                                              ; preds = %117
  br label %122

122:                                              ; preds = %121
  br label %123

123:                                              ; preds = %122
  br label %124

124:                                              ; preds = %123
  %125 = load i64, ptr @H5E_ATTR_g, align 8
  %126 = load i64, ptr @H5E_NOTFOUND_g, align 8
  %127 = call i32 (ptr, ptr, i32, i64, i64, ptr, ...) @H5E_printf_stack(ptr noundef @.str, ptr noundef @__func__.H5O__attr_write, i32 noundef 905, i64 noundef %125, i64 noundef %126, ptr noundef @.str.33)
  br label %128

128:                                              ; preds = %124
  store i8 1, ptr %8, align 1
  %129 = load i8, ptr %8, align 1
  %130 = trunc i8 %129 to i1
  %131 = zext i1 %130 to i8
  store i8 %131, ptr %8, align 1
  br label %132

132:                                              ; preds = %128
  br label %133

133:                                              ; preds = %132
  store i32 -1, ptr %7, align 4
  br label %160

134:                                              ; No predecessors!
  br label %135

135:                                              ; preds = %134
  br label %136

136:                                              ; preds = %135, %117
  br label %137

137:                                              ; preds = %136, %85
  %138 = load ptr, ptr %3, align 8
  %139 = getelementptr inbounds %struct.H5O_loc_t, ptr %138, i32 0, i32 0
  %140 = load ptr, ptr %139, align 8
  %141 = load ptr, ptr %5, align 8
  %142 = call i32 @H5O_touch_oh(ptr noundef %140, ptr noundef %141, i1 noundef zeroext false)
  %143 = icmp slt i32 %142, 0
  br i1 %143, label %144, label %159

144:                                              ; preds = %137
  br label %145

145:                                              ; preds = %144
  br label %146

146:                                              ; preds = %145
  br label %147

147:                                              ; preds = %146
  %148 = load i64, ptr @H5E_ATTR_g, align 8
  %149 = load i64, ptr @H5E_CANTUPDATE_g, align 8
  %150 = call i32 (ptr, ptr, i32, i64, i64, ptr, ...) @H5E_printf_stack(ptr noundef @.str, ptr noundef @__func__.H5O__attr_write, i32 noundef 910, i64 noundef %148, i64 noundef %149, ptr noundef @.str.15)
  br label %151

151:                                              ; preds = %147
  store i8 1, ptr %8, align 1
  %152 = load i8, ptr %8, align 1
  %153 = trunc i8 %152 to i1
  %154 = zext i1 %153 to i8
  store i8 %154, ptr %8, align 1
  br label %155

155:                                              ; preds = %151
  br label %156

156:                                              ; preds = %155
  store i32 -1, ptr %7, align 4
  br label %160

157:                                              ; No predecessors!
  br label %158

158:                                              ; preds = %157
  br label %159

159:                                              ; preds = %158, %137
  br label %160

160:                                              ; preds = %159, %156, %133, %114, %82, %55, %26
  %161 = load ptr, ptr %5, align 8
  %162 = icmp ne ptr %161, null
  br i1 %162, label %163, label %180

163:                                              ; preds = %160
  %164 = load ptr, ptr %5, align 8
  %165 = call i32 @H5O_unpin(ptr noundef %164)
  %166 = icmp slt i32 %165, 0
  br i1 %166, label %167, label %180

167:                                              ; preds = %163
  br label %168

168:                                              ; preds = %167
  br label %169

169:                                              ; preds = %168
  br label %170

170:                                              ; preds = %169
  %171 = load i64, ptr @H5E_ATTR_g, align 8
  %172 = load i64, ptr @H5E_CANTUNPIN_g, align 8
  %173 = call i32 (ptr, ptr, i32, i64, i64, ptr, ...) @H5E_printf_stack(ptr noundef @.str, ptr noundef @__func__.H5O__attr_write, i32 noundef 914, i64 noundef %171, i64 noundef %172, ptr noundef @.str.16)
  br label %174

174:                                              ; preds = %170
  store i8 1, ptr %8, align 1
  %175 = load i8, ptr %8, align 1
  %176 = trunc i8 %175 to i1
  %177 = zext i1 %176 to i8
  store i8 %177, ptr %8, align 1
  br label %178

178:                                              ; preds = %174
  store i32 -1, ptr %7, align 4
  br label %179

179:                                              ; preds = %178
  br label %180

180:                                              ; preds = %179, %163, %160
  %181 = load i32, ptr %7, align 4
  ret i32 %181
}