; Function Attrs: nounwind uwtable
define range(i32 -1, 1) i32 @H5O__attr_write(ptr noundef %0, ptr noundef %1) local_unnamed_addr #0 {
  %3 = alloca %struct.H5O_ainfo_t, align 8
  %4 = alloca %struct.H5O_iter_wrt_t, align 8
  %5 = alloca %struct.H5O_mesg_operator_t, align 8
  %6 = tail call ptr @H5O_pin(ptr noundef %0) #9
  %7 = icmp eq ptr %6, null
  br i1 %7, label %55, label %8

8:                                                ; preds = %2
  %9 = getelementptr inbounds i8, ptr %3, i64 24
  store i64 -1, ptr %9, align 8
  %10 = getelementptr inbounds i8, ptr %6, i64 288
  %11 = load i8, ptr %10, align 8
  %12 = icmp ugt i8 %11, 1
  br i1 %12, label %13, label %.thread

13:                                               ; preds = %8
  %14 = load ptr, ptr %0, align 8
  %15 = call i32 @H5A__get_ainfo(ptr noundef %14, ptr noundef nonnull %6, ptr noundef nonnull %3) #9
  %16 = icmp slt i32 %15, 0
  br i1 %16, label %17, label %21

17:                                               ; preds = %13
  %18 = load i64, ptr @H5E_ATTR_g, align 8
  %19 = load i64, ptr @H5E_CANTGET_g, align 8
  %20 = call i32 (ptr, ptr, i32, i64, i64, ptr, ...) @H5E_printf_stack(ptr noundef nonnull @.str, ptr noundef nonnull @__func__.H5O__attr_write, i32 noundef 879, i64 noundef %18, i64 noundef %19, ptr noundef nonnull @.str.3) #9
  br label %59

21:                                               ; preds = %13
  %.pr = load i64, ptr %9, align 8
  %.not = icmp eq i64 %.pr, -1
  br i1 %.not, label %.thread, label %22

22:                                               ; preds = %21
  %23 = load ptr, ptr %0, align 8
  %24 = call i32 @H5A__dense_write(ptr noundef %23, ptr noundef nonnull %3, ptr noundef %1) #9
  %25 = icmp slt i32 %24, 0
  br i1 %25, label %26, label %47

26:                                               ; preds = %22
  %27 = load i64, ptr @H5E_ATTR_g, align 8
  %28 = load i64, ptr @H5E_CANTUPDATE_g, align 8
  %29 = call i32 (ptr, ptr, i32, i64, i64, ptr, ...) @H5E_printf_stack(ptr noundef nonnull @.str, ptr noundef nonnull @__func__.H5O__attr_write, i32 noundef 886, i64 noundef %27, i64 noundef %28, ptr noundef nonnull @.str.21) #9
  br label %59

.thread:                                          ; preds = %8, %21
  %30 = load ptr, ptr %0, align 8
  store ptr %30, ptr %4, align 8
  %31 = getelementptr inbounds i8, ptr %4, i64 8
  store ptr %1, ptr %31, align 8
  %32 = getelementptr inbounds i8, ptr %4, i64 16
  store i8 0, ptr %32, align 8
  store i32 1, ptr %5, align 8
  %33 = getelementptr inbounds i8, ptr %5, i64 8
  store ptr @H5O__attr_write_cb, ptr %33, align 8
  %34 = call i32 @H5O__msg_iterate_real(ptr noundef %30, ptr noundef nonnull %6, ptr noundef nonnull @H5O_MSG_ATTR, ptr noundef nonnull %5, ptr noundef nonnull %4) #9
  %35 = icmp slt i32 %34, 0
  br i1 %35, label %36, label %40

36:                                               ; preds = %.thread
  %37 = load i64, ptr @H5E_ATTR_g, align 8
  %38 = load i64, ptr @H5E_CANTUPDATE_g, align 8
  %39 = call i32 (ptr, ptr, i32, i64, i64, ptr, ...) @H5E_printf_stack(ptr noundef nonnull @.str, ptr noundef nonnull @__func__.H5O__attr_write, i32 noundef 901, i64 noundef %37, i64 noundef %38, ptr noundef nonnull @.str.21) #9
  br label %59

40:                                               ; preds = %.thread
  %41 = load i8, ptr %32, align 8
  %42 = trunc i8 %41 to i1
  br i1 %42, label %47, label %43

43:                                               ; preds = %40
  %44 = load i64, ptr @H5E_ATTR_g, align 8
  %45 = load i64, ptr @H5E_NOTFOUND_g, align 8
  %46 = call i32 (ptr, ptr, i32, i64, i64, ptr, ...) @H5E_printf_stack(ptr noundef nonnull @.str, ptr noundef nonnull @__func__.H5O__attr_write, i32 noundef 905, i64 noundef %44, i64 noundef %45, ptr noundef nonnull @.str.33) #9
  br label %59

47:                                               ; preds = %40, %22
  %48 = load ptr, ptr %0, align 8
  %49 = call i32 @H5O_touch_oh(ptr noundef %48, ptr noundef nonnull %6, i1 noundef zeroext false) #9
  %50 = icmp slt i32 %49, 0
  br i1 %50, label %51, label %59

51:                                               ; preds = %47
  %52 = load i64, ptr @H5E_ATTR_g, align 8
  %53 = load i64, ptr @H5E_CANTUPDATE_g, align 8
  %54 = call i32 (ptr, ptr, i32, i64, i64, ptr, ...) @H5E_printf_stack(ptr noundef nonnull @.str, ptr noundef nonnull @__func__.H5O__attr_write, i32 noundef 910, i64 noundef %52, i64 noundef %53, ptr noundef nonnull @.str.15) #9
  br label %59

55:                                               ; preds = %2
  %56 = load i64, ptr @H5E_ATTR_g, align 8
  %57 = load i64, ptr @H5E_CANTPIN_g, align 8
  %58 = tail call i32 (ptr, ptr, i32, i64, i64, ptr, ...) @H5E_printf_stack(ptr noundef nonnull @.str, ptr noundef nonnull @__func__.H5O__attr_write, i32 noundef 872, i64 noundef %56, i64 noundef %57, ptr noundef nonnull @.str.1) #9
  br label %66

59:                                               ; preds = %47, %51, %43, %36, %26, %17
  %.0.ph = phi i32 [ -1, %43 ], [ -1, %36 ], [ 0, %47 ], [ -1, %51 ], [ -1, %26 ], [ -1, %17 ]
  %60 = call i32 @H5O_unpin(ptr noundef nonnull %6) #9
  %61 = icmp slt i32 %60, 0
  br i1 %61, label %62, label %66

62:                                               ; preds = %59
  %63 = load i64, ptr @H5E_ATTR_g, align 8
  %64 = load i64, ptr @H5E_CANTUNPIN_g, align 8
  %65 = call i32 (ptr, ptr, i32, i64, i64, ptr, ...) @H5E_printf_stack(ptr noundef nonnull @.str, ptr noundef nonnull @__func__.H5O__attr_write, i32 noundef 914, i64 noundef %63, i64 noundef %64, ptr noundef nonnull @.str.16) #9
  br label %66

66:                                               ; preds = %55, %62, %59
  %.1 = phi i32 [ -1, %62 ], [ %.0.ph, %59 ], [ -1, %55 ]
  ret i32 %.1
}